(dp0
I2304
VJQuery
p1
sI29805
VOperating Systems
p2
sI6930
VAngularJS
p3
sI3478
VPHP
p4
sI31779
VProgramming Languages
p5
sI12326
VCompiler
p6
sI4904
VWordPress
p7
sI2217
VJava (programming language)
p8
sI18090
VGo (programming language)
p9
sI2219
VJavaScript
p10
sI4652
VUnix
p11
sI4040
VSkeptic
p12
sI24627
VLinux Kernel
p13
sI28597
VNerds
p14
sI3256
VOCaml
p15
sI2620
VMachine Learning
p16
sI4800
VWeb Design
p17
sI42433
VWeb Development
p18
sI968
VClojure
p19
sI1997
VHTML5
p20
sI8301
VBash (programming language)
p21
sI2530
VLinux
p22
sI1236
VDesign Tutorials
p23
sI1628
VFreeBSD
p24
sI1402
VEmacs
p25
sI1762
VGNU
p26
sI2531
VLinux Gaming
p27
sI1636
VFreethought
p28
sI19942
VHTML
p29
sI2535
VLisp (programming language)
p30
sI12011
VClojureScript
p31
sI3437
VPerl
p32
sI3311
VOpen Source Software
p33
sI32752
VResponsive Design
p34
sI18088
VGNOME
p35
sI3187
VNode.js
p36
sI3829
VRuby (programming language)
p37
sI1656
VFunctional Programming
p38
sI40954
VUbuntu (operating system)
p39
sI2218
VJava Virtual Machine
p40
sI3582
VProgramming
p41
sI6271
VAlgorithms
p42
s.