(dp0
I42433
VWeb Development
p1
sI1762
VGNU
p2
sI2535
VLisp (programming language)
p3
sI968
VClojure
p4
sI18090
VGo (programming language)
p5
sI12011
VClojureScript
p6
sI3437
VPerl
p7
sI4040
VSkeptic
p8
sI3187
VNode.js
p9
sI28597
VNerds
p10
sI3582
VProgramming
p11
sI6271
VAlgorithms
p12
s.